target datalayout = "e-m:e-p270:32:32-p271:32:32-p272:64:64-i64:64-i128:128-f80:128-n8:16:32:64-S128"
target triple = "x86_64-pc-linux-gnu"

%struct.sqlite3_recover = type { ptr, ptr, ptr, ptr, ptr, ptr, ptr, i32, i32, i32, i32, i32, i32, ptr, ptr, i32, ptr, i32, i32, %struct.RecoverStateW1, %struct.RecoverStateLAF, ptr, ptr, ptr }
%struct.RecoverStateW1 = type { ptr, ptr, ptr, i32, ptr, i32, ptr, i32, i32, i64, i64, i32 }
%struct.RecoverStateLAF = type { ptr, i64, ptr, ptr, ptr, ptr, ptr, ptr, ptr, ptr, ptr, i32 }

; Function Attrs: nounwind uwtable
define i32 @sqlite3_recover_errcode(ptr noundef %0) #0 {
  %2 = alloca ptr, align 8
  store ptr %0, ptr %2, align 8, !tbaa !302
  %3 = load ptr, ptr %2, align 8, !tbaa !302
  %4 = icmp ne ptr %3, null
  br i1 %4, label %5, label %9

5:                                                ; preds = %1
  %6 = load ptr, ptr %2, align 8, !tbaa !302
  %7 = getelementptr inbounds nuw %struct.sqlite3_recover, ptr %6, i32 0, i32 15
  %8 = load i32, ptr %7, align 8, !tbaa !315
  br label %10

9:                                                ; preds = %1
  br label %10

10:                                               ; preds = %9, %5
  %11 = phi i32 [ %8, %5 ], [ 7, %9 ]
  ret i32 %11
}

; Function Attrs: nounwind uwtable
define i32 @sqlite3_recover_step(ptr noundef %0) #0 {
  %2 = alloca i32, align 4
  %3 = alloca ptr, align 8
  store ptr %0, ptr %3, align 8, !tbaa !302
  %4 = load ptr, ptr %3, align 8, !tbaa !302
  %5 = icmp eq ptr %4, null
  br i1 %5, label %6, label %7

6:                                                ; preds = %1
  store i32 7, ptr %2, align 4
  br label %29

7:                                                ; preds = %1
  %8 = load ptr, ptr %3, align 8, !tbaa !302
  %9 = getelementptr inbounds nuw %struct.sqlite3_recover, ptr %8, i32 0, i32 15
  %10 = load i32, ptr %9, align 8, !tbaa !315
  %11 = icmp eq i32 %10, 0
  br i1 %11, label %12, label %14

12:                                               ; preds = %7
  %13 = load ptr, ptr %3, align 8, !tbaa !302
  call void @recoverStep(ptr noundef %13)
  br label %14

14:                                               ; preds = %12, %7
  %15 = load ptr, ptr %3, align 8, !tbaa !302
  %16 = getelementptr inbounds nuw %struct.sqlite3_recover, ptr %15, i32 0, i32 17
  %17 = load i32, ptr %16, align 8, !tbaa !317
  %18 = icmp eq i32 %17, 6
  br i1 %18, label %19, label %25

19:                                               ; preds = %14
  %20 = load ptr, ptr %3, align 8, !tbaa !302
  %21 = getelementptr inbounds nuw %struct.sqlite3_recover, ptr %20, i32 0, i32 15
  %22 = load i32, ptr %21, align 8, !tbaa !315
  %23 = icmp eq i32 %22, 0
  br i1 %23, label %24, label %25

24:                                               ; preds = %19
  store i32 101, ptr %2, align 4
  br label %29

25:                                               ; preds = %19, %14
  %26 = load ptr, ptr %3, align 8, !tbaa !302
  %27 = getelementptr inbounds nuw %struct.sqlite3_recover, ptr %26, i32 0, i32 15
  %28 = load i32, ptr %27, align 8, !tbaa !315
  store i32 %28, ptr %2, align 4
  br label %29

29:                                               ; preds = %25, %24, %6
  %30 = load i32, ptr %2, align 4
  ret i32 %30
}

; Function Attrs: nounwind uwtable
define i32 @sqlite3_recover_run(ptr noundef %0) #0 {
  %2 = alloca ptr, align 8
  store ptr %0, ptr %2, align 8, !tbaa !302
  br label %3

3:                                                ; preds = %7, %1
  %4 = load ptr, ptr %2, align 8, !tbaa !302
  %5 = call i32 @sqlite3_recover_step(ptr noundef %4)
  %6 = icmp eq i32 0, %5
  br i1 %6, label %7, label %8

7:                                                ; preds = %3
  br label %3, !llvm.loop !328

8:                                                ; preds = %3
  %9 = load ptr, ptr %2, align 8, !tbaa !302
  %10 = call i32 @sqlite3_recover_errcode(ptr noundef %9)
  ret i32 %10
}