; Function Attrs: nounwind uwtable
define i32 @sqlite3_recover_run(ptr noundef %0) local_unnamed_addr #2 {
  %2 = icmp eq ptr %0, null
  %3 = getelementptr inbounds nuw i8, ptr %0, i64 96
  %4 = getelementptr inbounds nuw i8, ptr %0, i64 112
  br i1 %2, label %sqlite3_recover_errcode.exit, label %.split.preheader

.split.preheader:                                 ; preds = %1
  %.pre = load i32, ptr %3, align 8, !tbaa !343
  br label %.split

.split:                                           ; preds = %.split.preheader, %7
  %5 = phi i32 [ %.pre, %.split.preheader ], [ 0, %7 ]
  %6 = icmp eq i32 %5, 0
  br i1 %6, label %7, label %sqlite3_recover_errcode.exit

7:                                                ; preds = %.split
  tail call fastcc void @recoverStep(ptr noundef %0)
  %.pre.pre.i = load i32, ptr %3, align 8, !tbaa !343
  %8 = load i32, ptr %4, align 8, !tbaa !345
  %9 = icmp ne i32 %8, 6
  %10 = icmp eq i32 %.pre.pre.i, 0
  %or.cond = select i1 %9, i1 %10, i1 false
  br i1 %or.cond, label %.split, label %sqlite3_recover_errcode.exit, !llvm.loop !429

sqlite3_recover_errcode.exit:                     ; preds = %7, %.split, %1
  %11 = phi i32 [ 7, %1 ], [ %.pre.pre.i, %7 ], [ %5, %.split ]
  ret i32 %11
}